                                      1 ;--------------------------------------------------------
                                      2 ; File Created by SDCC : free open source ISO C Compiler 
                                      3 ; Version 4.4.0 #14620 (Linux)
                                      4 ;--------------------------------------------------------
                                      5 	.module stm8s_exti_SetExtIntSensitivity
                                      6 	.optsdcc -mstm8
                                      7 	
                                      8 ;--------------------------------------------------------
                                      9 ; Public variables in this module
                                     10 ;--------------------------------------------------------
                                     11 	.globl _assert_failed
                                     12 	.globl _EXTI_SetExtIntSensitivity
                                     13 ;--------------------------------------------------------
                                     14 ; ram data
                                     15 ;--------------------------------------------------------
                                     16 	.area DATA
                                     17 ;--------------------------------------------------------
                                     18 ; ram data
                                     19 ;--------------------------------------------------------
                                     20 	.area INITIALIZED
                                     21 ;--------------------------------------------------------
                                     22 ; absolute external ram data
                                     23 ;--------------------------------------------------------
                                     24 	.area DABS (ABS)
                                     25 
                                     26 ; default segment ordering for linker
                                     27 	.area HOME
                                     28 	.area GSINIT
                                     29 	.area GSFINAL
                                     30 	.area CONST
                                     31 	.area INITIALIZER
                                     32 	.area CODE
                                     33 
                                     34 ;--------------------------------------------------------
                                     35 ; global & static initialisations
                                     36 ;--------------------------------------------------------
                                     37 	.area HOME
                                     38 	.area GSINIT
                                     39 	.area GSFINAL
                                     40 	.area GSINIT
                                     41 ;--------------------------------------------------------
                                     42 ; Home
                                     43 ;--------------------------------------------------------
                                     44 	.area HOME
                                     45 	.area HOME
                                     46 ;--------------------------------------------------------
                                     47 ; code
                                     48 ;--------------------------------------------------------
                                     49 	.area CODE
                                     50 ;	../STM8S_StdPeriph_Driver/src/stm8s_exti_SetExtIntSensitivity.c: 52: void EXTI_SetExtIntSensitivity(EXTI_Port_TypeDef Port, EXTI_Sensitivity_TypeDef SensitivityValue)
                                     51 ;	-----------------------------------------
                                     52 ;	 function EXTI_SetExtIntSensitivity
                                     53 ;	-----------------------------------------
      000000                         54 _EXTI_SetExtIntSensitivity:
      000000 88               [ 1]   55 	push	a
                                     56 ;	../STM8S_StdPeriph_Driver/src/stm8s_exti_SetExtIntSensitivity.c: 55: assert_param(IS_EXTI_PORT_OK(Port));
      000001 4D               [ 1]   57 	tnz	a
      000002 27 1E            [ 1]   58 	jreq	00111$
      000004 A1 01            [ 1]   59 	cp	a, #0x01
      000006 27 1A            [ 1]   60 	jreq	00111$
      000008 A1 02            [ 1]   61 	cp	a, #0x02
      00000A 27 16            [ 1]   62 	jreq	00111$
      00000C A1 03            [ 1]   63 	cp	a, #0x03
      00000E 27 12            [ 1]   64 	jreq	00111$
      000010 A1 04            [ 1]   65 	cp	a, #0x04
      000012 27 0E            [ 1]   66 	jreq	00111$
      000014 88               [ 1]   67 	push	a
      000015 4B 37            [ 1]   68 	push	#0x37
      000017 5F               [ 1]   69 	clrw	x
      000018 89               [ 2]   70 	pushw	x
      000019 4B 00            [ 1]   71 	push	#0x00
      00001B AEr00r00         [ 2]   72 	ldw	x, #(___str_0+0)
      00001E CDr00r00         [ 4]   73 	call	_assert_failed
      000021 84               [ 1]   74 	pop	a
      000022                         75 00111$:
                                     76 ;	../STM8S_StdPeriph_Driver/src/stm8s_exti_SetExtIntSensitivity.c: 56: assert_param(IS_EXTI_SENSITIVITY_OK(SensitivityValue));
      000022 0D 04            [ 1]   77 	tnz	(0x04, sp)
      000024 27 25            [ 1]   78 	jreq	00125$
      000026 88               [ 1]   79 	push	a
      000027 7B 05            [ 1]   80 	ld	a, (0x05, sp)
      000029 4A               [ 1]   81 	dec	a
      00002A 84               [ 1]   82 	pop	a
      00002B 27 1E            [ 1]   83 	jreq	00125$
      00002D 88               [ 1]   84 	push	a
      00002E 7B 05            [ 1]   85 	ld	a, (0x05, sp)
      000030 A1 02            [ 1]   86 	cp	a, #0x02
      000032 84               [ 1]   87 	pop	a
      000033 27 16            [ 1]   88 	jreq	00125$
      000035 88               [ 1]   89 	push	a
      000036 7B 05            [ 1]   90 	ld	a, (0x05, sp)
      000038 A1 03            [ 1]   91 	cp	a, #0x03
      00003A 84               [ 1]   92 	pop	a
      00003B 27 0E            [ 1]   93 	jreq	00125$
      00003D 88               [ 1]   94 	push	a
      00003E 4B 38            [ 1]   95 	push	#0x38
      000040 5F               [ 1]   96 	clrw	x
      000041 89               [ 2]   97 	pushw	x
      000042 4B 00            [ 1]   98 	push	#0x00
      000044 AEr00r00         [ 2]   99 	ldw	x, #(___str_0+0)
      000047 CDr00r00         [ 4]  100 	call	_assert_failed
      00004A 84               [ 1]  101 	pop	a
      00004B                        102 00125$:
                                    103 ;	../STM8S_StdPeriph_Driver/src/stm8s_exti_SetExtIntSensitivity.c: 59: switch (Port)
      00004B A1 04            [ 1]  104 	cp	a, #0x04
      00004D 23 03            [ 2]  105 	jrule	00228$
      00004F CCr00rD4         [ 2]  106 	jp	00108$
      000052                        107 00228$:
                                    108 ;	../STM8S_StdPeriph_Driver/src/stm8s_exti_SetExtIntSensitivity.c: 67: EXTI->CR1 |= (uint8_t)((uint8_t)(SensitivityValue) << 2);
      000052 61               [ 1]  109 	exg	a, yl
      000053 7B 04            [ 1]  110 	ld	a, (0x04, sp)
      000055 61               [ 1]  111 	exg	a, yl
                                    112 ;	../STM8S_StdPeriph_Driver/src/stm8s_exti_SetExtIntSensitivity.c: 59: switch (Port)
      000056 5F               [ 1]  113 	clrw	x
      000057 97               [ 1]  114 	ld	xl, a
      000058 58               [ 2]  115 	sllw	x
      000059 DEu00u5D         [ 2]  116 	ldw	x, (#00229$, x)
      00005C FC               [ 2]  117 	jp	(x)
      00005D                        118 00229$:
      00005Dr00r67                  119 	.dw	#00101$
      00005Fr00r79                  120 	.dw	#00102$
      000061r00r90                  121 	.dw	#00103$
      000063r00rA9                  122 	.dw	#00104$
      000065r00rC4                  123 	.dw	#00105$
                                    124 ;	../STM8S_StdPeriph_Driver/src/stm8s_exti_SetExtIntSensitivity.c: 61: case EXTI_PORT_GPIOA:
      000067                        125 00101$:
                                    126 ;	../STM8S_StdPeriph_Driver/src/stm8s_exti_SetExtIntSensitivity.c: 62: EXTI->CR1 &= (uint8_t)(~EXTI_CR1_PAIS);
      000067 C6 50 A0         [ 1]  127 	ld	a, 0x50a0
      00006A A4 FC            [ 1]  128 	and	a, #0xfc
      00006C C7 50 A0         [ 1]  129 	ld	0x50a0, a
                                    130 ;	../STM8S_StdPeriph_Driver/src/stm8s_exti_SetExtIntSensitivity.c: 63: EXTI->CR1 |= (uint8_t)(SensitivityValue);
      00006F C6 50 A0         [ 1]  131 	ld	a, 0x50a0
      000072 1A 04            [ 1]  132 	or	a, (0x04, sp)
      000074 C7 50 A0         [ 1]  133 	ld	0x50a0, a
                                    134 ;	../STM8S_StdPeriph_Driver/src/stm8s_exti_SetExtIntSensitivity.c: 64: break;
      000077 20 5B            [ 2]  135 	jra	00108$
                                    136 ;	../STM8S_StdPeriph_Driver/src/stm8s_exti_SetExtIntSensitivity.c: 65: case EXTI_PORT_GPIOB:
      000079                        137 00102$:
                                    138 ;	../STM8S_StdPeriph_Driver/src/stm8s_exti_SetExtIntSensitivity.c: 66: EXTI->CR1 &= (uint8_t)(~EXTI_CR1_PBIS);
      000079 C6 50 A0         [ 1]  139 	ld	a, 0x50a0
      00007C A4 F3            [ 1]  140 	and	a, #0xf3
      00007E C7 50 A0         [ 1]  141 	ld	0x50a0, a
                                    142 ;	../STM8S_StdPeriph_Driver/src/stm8s_exti_SetExtIntSensitivity.c: 67: EXTI->CR1 |= (uint8_t)((uint8_t)(SensitivityValue) << 2);
      000081 C6 50 A0         [ 1]  143 	ld	a, 0x50a0
      000084 93               [ 1]  144 	ldw	x, y
      000085 58               [ 2]  145 	sllw	x
      000086 58               [ 2]  146 	sllw	x
      000087 89               [ 2]  147 	pushw	x
      000088 1A 02            [ 1]  148 	or	a, (2, sp)
      00008A 85               [ 2]  149 	popw	x
      00008B C7 50 A0         [ 1]  150 	ld	0x50a0, a
                                    151 ;	../STM8S_StdPeriph_Driver/src/stm8s_exti_SetExtIntSensitivity.c: 68: break;
      00008E 20 44            [ 2]  152 	jra	00108$
                                    153 ;	../STM8S_StdPeriph_Driver/src/stm8s_exti_SetExtIntSensitivity.c: 69: case EXTI_PORT_GPIOC:
      000090                        154 00103$:
                                    155 ;	../STM8S_StdPeriph_Driver/src/stm8s_exti_SetExtIntSensitivity.c: 70: EXTI->CR1 &= (uint8_t)(~EXTI_CR1_PCIS);
      000090 C6 50 A0         [ 1]  156 	ld	a, 0x50a0
      000093 A4 CF            [ 1]  157 	and	a, #0xcf
      000095 C7 50 A0         [ 1]  158 	ld	0x50a0, a
                                    159 ;	../STM8S_StdPeriph_Driver/src/stm8s_exti_SetExtIntSensitivity.c: 71: EXTI->CR1 |= (uint8_t)((uint8_t)(SensitivityValue) << 4);
      000098 C6 50 A0         [ 1]  160 	ld	a, 0x50a0
      00009B 6B 01            [ 1]  161 	ld	(0x01, sp), a
      00009D 90 9F            [ 1]  162 	ld	a, yl
      00009F 4E               [ 1]  163 	swap	a
      0000A0 A4 F0            [ 1]  164 	and	a, #0xf0
      0000A2 1A 01            [ 1]  165 	or	a, (0x01, sp)
      0000A4 C7 50 A0         [ 1]  166 	ld	0x50a0, a
                                    167 ;	../STM8S_StdPeriph_Driver/src/stm8s_exti_SetExtIntSensitivity.c: 72: break;
      0000A7 20 2B            [ 2]  168 	jra	00108$
                                    169 ;	../STM8S_StdPeriph_Driver/src/stm8s_exti_SetExtIntSensitivity.c: 73: case EXTI_PORT_GPIOD:
      0000A9                        170 00104$:
                                    171 ;	../STM8S_StdPeriph_Driver/src/stm8s_exti_SetExtIntSensitivity.c: 74: EXTI->CR1 &= (uint8_t)(~EXTI_CR1_PDIS);
      0000A9 C6 50 A0         [ 1]  172 	ld	a, 0x50a0
      0000AC A4 3F            [ 1]  173 	and	a, #0x3f
      0000AE C7 50 A0         [ 1]  174 	ld	0x50a0, a
                                    175 ;	../STM8S_StdPeriph_Driver/src/stm8s_exti_SetExtIntSensitivity.c: 75: EXTI->CR1 |= (uint8_t)((uint8_t)(SensitivityValue) << 6);
      0000B1 C6 50 A0         [ 1]  176 	ld	a, 0x50a0
      0000B4 6B 01            [ 1]  177 	ld	(0x01, sp), a
      0000B6 90 9F            [ 1]  178 	ld	a, yl
      0000B8 4E               [ 1]  179 	swap	a
      0000B9 A4 F0            [ 1]  180 	and	a, #0xf0
      0000BB 48               [ 1]  181 	sll	a
      0000BC 48               [ 1]  182 	sll	a
      0000BD 1A 01            [ 1]  183 	or	a, (0x01, sp)
      0000BF C7 50 A0         [ 1]  184 	ld	0x50a0, a
                                    185 ;	../STM8S_StdPeriph_Driver/src/stm8s_exti_SetExtIntSensitivity.c: 76: break;
      0000C2 20 10            [ 2]  186 	jra	00108$
                                    187 ;	../STM8S_StdPeriph_Driver/src/stm8s_exti_SetExtIntSensitivity.c: 77: case EXTI_PORT_GPIOE:
      0000C4                        188 00105$:
                                    189 ;	../STM8S_StdPeriph_Driver/src/stm8s_exti_SetExtIntSensitivity.c: 78: EXTI->CR2 &= (uint8_t)(~EXTI_CR2_PEIS);
      0000C4 C6 50 A1         [ 1]  190 	ld	a, 0x50a1
      0000C7 A4 FC            [ 1]  191 	and	a, #0xfc
      0000C9 C7 50 A1         [ 1]  192 	ld	0x50a1, a
                                    193 ;	../STM8S_StdPeriph_Driver/src/stm8s_exti_SetExtIntSensitivity.c: 79: EXTI->CR2 |= (uint8_t)(SensitivityValue);
      0000CC C6 50 A1         [ 1]  194 	ld	a, 0x50a1
      0000CF 1A 04            [ 1]  195 	or	a, (0x04, sp)
      0000D1 C7 50 A1         [ 1]  196 	ld	0x50a1, a
                                    197 ;	../STM8S_StdPeriph_Driver/src/stm8s_exti_SetExtIntSensitivity.c: 83: }
      0000D4                        198 00108$:
                                    199 ;	../STM8S_StdPeriph_Driver/src/stm8s_exti_SetExtIntSensitivity.c: 84: }
      0000D4 84               [ 1]  200 	pop	a
      0000D5 85               [ 2]  201 	popw	x
      0000D6 84               [ 1]  202 	pop	a
      0000D7 FC               [ 2]  203 	jp	(x)
                                    204 	.area CODE
                                    205 	.area CONST
                                    206 	.area CONST
      000000                        207 ___str_0:
      000000 2E 2E 2F 53 54 4D 38   208 	.ascii "../STM8S_StdPeriph_Driver/src/stm8s_exti_SetExtIntSensitivit"
             53 5F 53 74 64 50 65
             72 69 70 68 5F 44 72
             69 76 65 72 2F 73 72
             63 2F 73 74 6D 38 73
             5F 65 78 74 69 5F 53
             65 74 45 78 74 49 6E
             74 53 65 6E 73 69 74
             69 76 69 74
      00003C 79 2E 63               209 	.ascii "y.c"
      00003F 00                     210 	.db 0x00
                                    211 	.area CODE
                                    212 	.area INITIALIZER
                                    213 	.area CABS (ABS)
