                                      1 ;--------------------------------------------------------
                                      2 ; File Created by SDCC : free open source ISO C Compiler 
                                      3 ; Version 4.4.0 #14620 (Linux)
                                      4 ;--------------------------------------------------------
                                      5 	.module stm8s_itc_GetSoftwarePriority
                                      6 	.optsdcc -mstm8
                                      7 	
                                      8 ;--------------------------------------------------------
                                      9 ; Public variables in this module
                                     10 ;--------------------------------------------------------
                                     11 	.globl _assert_failed
                                     12 	.globl _ITC_GetSoftwarePriority
                                     13 ;--------------------------------------------------------
                                     14 ; ram data
                                     15 ;--------------------------------------------------------
                                     16 	.area DATA
                                     17 ;--------------------------------------------------------
                                     18 ; ram data
                                     19 ;--------------------------------------------------------
                                     20 	.area INITIALIZED
                                     21 ;--------------------------------------------------------
                                     22 ; absolute external ram data
                                     23 ;--------------------------------------------------------
                                     24 	.area DABS (ABS)
                                     25 
                                     26 ; default segment ordering for linker
                                     27 	.area HOME
                                     28 	.area GSINIT
                                     29 	.area GSFINAL
                                     30 	.area CONST
                                     31 	.area INITIALIZER
                                     32 	.area CODE
                                     33 
                                     34 ;--------------------------------------------------------
                                     35 ; global & static initialisations
                                     36 ;--------------------------------------------------------
                                     37 	.area HOME
                                     38 	.area GSINIT
                                     39 	.area GSFINAL
                                     40 	.area GSINIT
                                     41 ;--------------------------------------------------------
                                     42 ; Home
                                     43 ;--------------------------------------------------------
                                     44 	.area HOME
                                     45 	.area HOME
                                     46 ;--------------------------------------------------------
                                     47 ; code
                                     48 ;--------------------------------------------------------
                                     49 	.area CODE
                                     50 ;	../STM8S_StdPeriph_Driver/src/stm8s_itc_GetSoftwarePriority.c: 46: ITC_PriorityLevel_TypeDef ITC_GetSoftwarePriority(ITC_Irq_TypeDef IrqNum)
                                     51 ;	-----------------------------------------
                                     52 ;	 function ITC_GetSoftwarePriority
                                     53 ;	-----------------------------------------
      000000                         54 _ITC_GetSoftwarePriority:
      000000 52 05            [ 2]   55 	sub	sp, #5
      000002 6B 05            [ 1]   56 	ld	(0x05, sp), a
                                     57 ;	../STM8S_StdPeriph_Driver/src/stm8s_itc_GetSoftwarePriority.c: 48: uint8_t Value = 0;
      000004 0F 01            [ 1]   58 	clr	(0x01, sp)
                                     59 ;	../STM8S_StdPeriph_Driver/src/stm8s_itc_GetSoftwarePriority.c: 52: assert_param(IS_ITC_IRQ_OK((uint8_t)IrqNum));
      000006 7B 05            [ 1]   60 	ld	a, (0x05, sp)
      000008 A1 18            [ 1]   61 	cp	a, #0x18
      00000A 22 04            [ 1]   62 	jrugt	00142$
      00000C 0F 02            [ 1]   63 	clr	(0x02, sp)
      00000E 20 04            [ 2]   64 	jra	00143$
      000010                         65 00142$:
      000010 A6 01            [ 1]   66 	ld	a, #0x01
      000012 6B 02            [ 1]   67 	ld	(0x02, sp), a
      000014                         68 00143$:
      000014 0D 02            [ 1]   69 	tnz	(0x02, sp)
      000016 27 0C            [ 1]   70 	jreq	00127$
      000018 4B 34            [ 1]   71 	push	#0x34
      00001A 5F               [ 1]   72 	clrw	x
      00001B 89               [ 2]   73 	pushw	x
      00001C 4B 00            [ 1]   74 	push	#0x00
      00001E AEr00r00         [ 2]   75 	ldw	x, #(___str_0+0)
      000021 CDr00r00         [ 4]   76 	call	_assert_failed
      000024                         77 00127$:
                                     78 ;	../STM8S_StdPeriph_Driver/src/stm8s_itc_GetSoftwarePriority.c: 55: Mask = (uint8_t)(0x03U << (((uint8_t)IrqNum % 4U) * 2U));
      000024 7B 05            [ 1]   79 	ld	a, (0x05, sp)
      000026 A4 03            [ 1]   80 	and	a, #0x03
      000028 48               [ 1]   81 	sll	a
      000029 6B 03            [ 1]   82 	ld	(0x03, sp), a
      00002B A6 03            [ 1]   83 	ld	a, #0x03
      00002D 6B 04            [ 1]   84 	ld	(0x04, sp), a
      00002F 7B 03            [ 1]   85 	ld	a, (0x03, sp)
      000031 27 05            [ 1]   86 	jreq	00146$
      000033                         87 00145$:
      000033 08 04            [ 1]   88 	sll	(0x04, sp)
      000035 4A               [ 1]   89 	dec	a
      000036 26 FB            [ 1]   90 	jrne	00145$
      000038                         91 00146$:
                                     92 ;	../STM8S_StdPeriph_Driver/src/stm8s_itc_GetSoftwarePriority.c: 57: switch (IrqNum)
      000038 7B 02            [ 1]   93 	ld	a, (0x02, sp)
      00003A 26 78            [ 1]   94 	jrne	00123$
      00003C 5F               [ 1]   95 	clrw	x
      00003D 7B 05            [ 1]   96 	ld	a, (0x05, sp)
      00003F 97               [ 1]   97 	ld	xl, a
      000040 58               [ 2]   98 	sllw	x
      000041 DEu00u45         [ 2]   99 	ldw	x, (#00148$, x)
      000044 FC               [ 2]  100 	jp	(x)
      000045                        101 00148$:
      000045r00r77                  102 	.dw	#00104$
      000047r00r77                  103 	.dw	#00104$
      000049r00r77                  104 	.dw	#00104$
      00004Br00r77                  105 	.dw	#00104$
      00004Dr00r80                  106 	.dw	#00108$
      00004Fr00r80                  107 	.dw	#00108$
      000051r00r80                  108 	.dw	#00108$
      000053r00r80                  109 	.dw	#00108$
      000055r00rB4                  110 	.dw	#00123$
      000057r00rB4                  111 	.dw	#00123$
      000059r00r89                  112 	.dw	#00110$
      00005Br00r89                  113 	.dw	#00110$
      00005Dr00r92                  114 	.dw	#00114$
      00005Fr00r92                  115 	.dw	#00114$
      000061r00r92                  116 	.dw	#00114$
      000063r00r92                  117 	.dw	#00114$
      000065r00r9B                  118 	.dw	#00116$
      000067r00rB4                  119 	.dw	#00123$
      000069r00rB4                  120 	.dw	#00123$
      00006Br00r9B                  121 	.dw	#00116$
      00006Dr00rA4                  122 	.dw	#00120$
      00006Fr00rA4                  123 	.dw	#00120$
      000071r00rA4                  124 	.dw	#00120$
      000073r00rA4                  125 	.dw	#00120$
      000075r00rAD                  126 	.dw	#00121$
                                    127 ;	../STM8S_StdPeriph_Driver/src/stm8s_itc_GetSoftwarePriority.c: 62: case ITC_IRQ_PORTA:
      000077                        128 00104$:
                                    129 ;	../STM8S_StdPeriph_Driver/src/stm8s_itc_GetSoftwarePriority.c: 63: Value = (uint8_t)(ITC->ISPR1 & Mask); /* Read software priority */
      000077 C6 7F 70         [ 1]  130 	ld	a, 0x7f70
      00007A 14 04            [ 1]  131 	and	a, (0x04, sp)
      00007C 6B 01            [ 1]  132 	ld	(0x01, sp), a
                                    133 ;	../STM8S_StdPeriph_Driver/src/stm8s_itc_GetSoftwarePriority.c: 64: break;
      00007E 20 34            [ 2]  134 	jra	00123$
                                    135 ;	../STM8S_StdPeriph_Driver/src/stm8s_itc_GetSoftwarePriority.c: 69: case ITC_IRQ_PORTE:
      000080                        136 00108$:
                                    137 ;	../STM8S_StdPeriph_Driver/src/stm8s_itc_GetSoftwarePriority.c: 70: Value = (uint8_t)(ITC->ISPR2 & Mask); /* Read software priority */
      000080 C6 7F 71         [ 1]  138 	ld	a, 0x7f71
      000083 14 04            [ 1]  139 	and	a, (0x04, sp)
      000085 6B 01            [ 1]  140 	ld	(0x01, sp), a
                                    141 ;	../STM8S_StdPeriph_Driver/src/stm8s_itc_GetSoftwarePriority.c: 71: break;
      000087 20 2B            [ 2]  142 	jra	00123$
                                    143 ;	../STM8S_StdPeriph_Driver/src/stm8s_itc_GetSoftwarePriority.c: 81: case ITC_IRQ_TIM1_OVF:
      000089                        144 00110$:
                                    145 ;	../STM8S_StdPeriph_Driver/src/stm8s_itc_GetSoftwarePriority.c: 82: Value = (uint8_t)(ITC->ISPR3 & Mask); /* Read software priority */
      000089 C6 7F 72         [ 1]  146 	ld	a, 0x7f72
      00008C 14 04            [ 1]  147 	and	a, (0x04, sp)
      00008E 6B 01            [ 1]  148 	ld	(0x01, sp), a
                                    149 ;	../STM8S_StdPeriph_Driver/src/stm8s_itc_GetSoftwarePriority.c: 83: break;
      000090 20 22            [ 2]  150 	jra	00123$
                                    151 ;	../STM8S_StdPeriph_Driver/src/stm8s_itc_GetSoftwarePriority.c: 93: case ITC_IRQ_TIM3_OVF:
      000092                        152 00114$:
                                    153 ;	../STM8S_StdPeriph_Driver/src/stm8s_itc_GetSoftwarePriority.c: 94: Value = (uint8_t)(ITC->ISPR4 & Mask); /* Read software priority */
      000092 C6 7F 73         [ 1]  154 	ld	a, 0x7f73
      000095 14 04            [ 1]  155 	and	a, (0x04, sp)
      000097 6B 01            [ 1]  156 	ld	(0x01, sp), a
                                    157 ;	../STM8S_StdPeriph_Driver/src/stm8s_itc_GetSoftwarePriority.c: 95: break;
      000099 20 19            [ 2]  158 	jra	00123$
                                    159 ;	../STM8S_StdPeriph_Driver/src/stm8s_itc_GetSoftwarePriority.c: 107: case ITC_IRQ_I2C:
      00009B                        160 00116$:
                                    161 ;	../STM8S_StdPeriph_Driver/src/stm8s_itc_GetSoftwarePriority.c: 108: Value = (uint8_t)(ITC->ISPR5 & Mask); /* Read software priority */
      00009B C6 7F 74         [ 1]  162 	ld	a, 0x7f74
      00009E 14 04            [ 1]  163 	and	a, (0x04, sp)
      0000A0 6B 01            [ 1]  164 	ld	(0x01, sp), a
                                    165 ;	../STM8S_StdPeriph_Driver/src/stm8s_itc_GetSoftwarePriority.c: 109: break;
      0000A2 20 10            [ 2]  166 	jra	00123$
                                    167 ;	../STM8S_StdPeriph_Driver/src/stm8s_itc_GetSoftwarePriority.c: 128: case ITC_IRQ_TIM4_OVF:
      0000A4                        168 00120$:
                                    169 ;	../STM8S_StdPeriph_Driver/src/stm8s_itc_GetSoftwarePriority.c: 130: Value = (uint8_t)(ITC->ISPR6 & Mask); /* Read software priority */
      0000A4 C6 7F 75         [ 1]  170 	ld	a, 0x7f75
      0000A7 14 04            [ 1]  171 	and	a, (0x04, sp)
      0000A9 6B 01            [ 1]  172 	ld	(0x01, sp), a
                                    173 ;	../STM8S_StdPeriph_Driver/src/stm8s_itc_GetSoftwarePriority.c: 131: break;
      0000AB 20 07            [ 2]  174 	jra	00123$
                                    175 ;	../STM8S_StdPeriph_Driver/src/stm8s_itc_GetSoftwarePriority.c: 133: case ITC_IRQ_EEPROM_EEC:
      0000AD                        176 00121$:
                                    177 ;	../STM8S_StdPeriph_Driver/src/stm8s_itc_GetSoftwarePriority.c: 134: Value = (uint8_t)(ITC->ISPR7 & Mask); /* Read software priority */
      0000AD C6 7F 76         [ 1]  178 	ld	a, 0x7f76
      0000B0 14 04            [ 1]  179 	and	a, (0x04, sp)
      0000B2 6B 01            [ 1]  180 	ld	(0x01, sp), a
                                    181 ;	../STM8S_StdPeriph_Driver/src/stm8s_itc_GetSoftwarePriority.c: 139: }
      0000B4                        182 00123$:
                                    183 ;	../STM8S_StdPeriph_Driver/src/stm8s_itc_GetSoftwarePriority.c: 141: Value >>= (uint8_t)(((uint8_t)IrqNum % 4u) * 2u);
      0000B4 7B 01            [ 1]  184 	ld	a, (0x01, sp)
      0000B6 88               [ 1]  185 	push	a
      0000B7 7B 04            [ 1]  186 	ld	a, (0x04, sp)
      0000B9 27 05            [ 1]  187 	jreq	00150$
      0000BB                        188 00149$:
      0000BB 04 01            [ 1]  189 	srl	(1, sp)
      0000BD 4A               [ 1]  190 	dec	a
      0000BE 26 FB            [ 1]  191 	jrne	00149$
      0000C0                        192 00150$:
      0000C0 84               [ 1]  193 	pop	a
                                    194 ;	../STM8S_StdPeriph_Driver/src/stm8s_itc_GetSoftwarePriority.c: 143: return((ITC_PriorityLevel_TypeDef)Value);
                                    195 ;	../STM8S_StdPeriph_Driver/src/stm8s_itc_GetSoftwarePriority.c: 144: }
      0000C1 5B 05            [ 2]  196 	addw	sp, #5
      0000C3 81               [ 4]  197 	ret
                                    198 	.area CODE
                                    199 	.area CONST
                                    200 	.area CONST
      000000                        201 ___str_0:
      000000 2E 2E 2F 53 54 4D 38   202 	.ascii "../STM8S_StdPeriph_Driver/src/stm8s_itc_GetSoftwarePriority."
             53 5F 53 74 64 50 65
             72 69 70 68 5F 44 72
             69 76 65 72 2F 73 72
             63 2F 73 74 6D 38 73
             5F 69 74 63 5F 47 65
             74 53 6F 66 74 77 61
             72 65 50 72 69 6F 72
             69 74 79 2E
      00003C 63                     203 	.ascii "c"
      00003D 00                     204 	.db 0x00
                                    205 	.area CODE
                                    206 	.area INITIALIZER
                                    207 	.area CABS (ABS)
